; Function Attrs: mustprogress nofree norecurse nosync nounwind willreturn memory(argmem: readwrite) uwtable
define void @_ZN32pxrInternal_v0_24__pxrReserved__16TfPatternMatcher18SetIsCaseSensitiveEb(ptr nocapture noundef nonnull align 8 dereferenceable(104) %0, i1 noundef zeroext %1) local_unnamed_addr #4 align 2 {
  %3 = load i8, ptr %0, align 8
  %4 = trunc i8 %3 to i1
  %5 = xor i1 %1, %4
  br i1 %5, label %6, label %9

6:                                                ; preds = %2
  %7 = zext i1 %1 to i8
  %8 = getelementptr inbounds nuw i8, ptr %0, i64 40
  store i8 1, ptr %8, align 8
  store i8 %7, ptr %0, align 8
  br label %9

9:                                                ; preds = %6, %2
  ret void
}